(dp0
S'water_percentage'
p1
F60.0
sS'water'
p2
F375.0
sS'sourdought'
p3
I0
sS'yeast'
p4
F6.25
sS'flour'
p5
F625.0
sS'sourdought_flour'
p6
I0
sS'totalweight'
p7
F1000.0
sS'sourdought_water'
p8
I0
sS'totalweight_percentage'
p9
F160.0
sS'saltpercentage'
p10
I2
sS'yeastpercentage'
p11
I1
sS'percentage'
p12
F60.0
sS'flour_percentage'
p13
F100.0
sS'salt'
p14
F12.5
sS'sourdoughtpercentage'
p15
F0.0
sS'yeast_option'
p16
S'dryyeast'
p17
s.