(dp0
S'default'
p1
(dp2
S'profile'
p3
Vdefault
p4
sS'water'
p5
F375.0
sS'sourdought'
p6
I0
sS'yeast'
p7
F6.25
sS'flour'
p8
F625.0
sS'sourdought_flour'
p9
I0
sS'water_percentage'
p10
F60.0
sS'totalweight'
p11
F1000.0
sS'sourdought_water'
p12
I0
sS'totalweight_percentage'
p13
F160.0
sS'saltpercentage'
p14
I2
sS'yeastpercentage'
p15
I1
sS'percentage'
p16
F60.0
sS'flour_percentage'
p17
F100.0
sS'salt'
p18
F12.5
sS'sourdoughtpercentage'
p19
F0.0
sS'yeast_option'
p20
S'dryyeast'
p21
ssVdry yeast only
p22
(dp23
g3
Vdry yeast only
p24
sg5
F375.0
sg6
I0
sg7
F6.25
sg8
F625.0
sg9
I0
sg10
F60.0
sg11
F1000.0
sg12
I0
sg13
F160.0
sg14
I2
sg15
I1
sg16
F60.0
sg17
F100.0
sg18
F12.5
sg19
F0.0
sg20
g21
ssVwith sourdought
p25
(dp26
g3
Vwith sourdought
p27
sg5
F325.0
sg6
F100.0
sg7
F3.375
sg8
F575.0
sg9
F50.0
sg10
F52.0
sg11
F1000.0
sg12
F50.0
sg13
F160.0
sg14
I2
sg15
F0.5
sg16
F60.0
sg17
F92.0
sg18
F13.5
sg19
F16.0
sg20
g6
ss.