(dp0
Vcombined with dry yeast
p1
(dp2
S'profile'
p3
Vcombined with dry yeast
p4
sS'water'
p5
F330.0
sS'sourdought'
p6
F104.0
sS'yeast'
p7
F6.74
sS'flour'
p8
F570.0
sS'sourdought_flour'
p9
F52.0
sS'water_percentage'
p10
F53.054662379421224
sS'totalweight'
p11
F1004.0
sS'sourdought_water'
p12
F52.0
sS'totalweight_percentage'
p13
F161.41479099678457
sS'saltpercentage'
p14
I2
sS'yeastpercentage'
p15
I1
sS'percentage'
p16
F61.414790996784575
sS'flour_percentage'
p17
F91.63987138263666
sS'salt'
p18
F13.48
sS'sourdoughtpercentage'
p19
F16.720257234726688
sS'yeast_option'
p20
S'sourdought_and_dryyeast'
p21
ssVsourdought
p22
(dp23
g3
Vsourdought
p24
sg5
F311.568431568
sg6
F137.86313686399996
sg7
F3.4471578421599998
sg8
F551.568431568
sg9
F68.93156843199998
sg10
F50.21247889895246
sg11
F1001.0
sg12
F68.93156843199998
sg13
F161.3215149073328
sg14
I2
sg15
F0.5
sg16
F61.32151490733281
sg17
F88.89096399161967
sg18
F13.788631368639999
sg19
F22.218072016760672
sg20
g6
ssS'default'
p25
(dp26
g3
Vdefault
p27
sg5
F330.0
sg6
I0
sg7
F5.7
sg8
F570.0
sg9
I0
sg10
F57.89473684210527
sg11
F900.0
sg12
I0
sg13
F157.89473684210526
sg14
I2
sg15
I1
sg16
F57.89473684210526
sg17
F100.0
sg18
F11.4
sg19
F0.0
sg20
S'dryyeast'
p28
ssVcombined with fresh yeast
p29
(dp30
g3
Vcombined with fresh yeast
p31
sg5
F324.125
sg6
F106.0
sg7
F3.409375
sg8
F575.875
sg9
F53.0
sg10
F51.54044921486782
sg11
F1006.0
sg12
F53.0
sg13
F159.96819717749952
sg14
I2
sg15
F0.5
sg16
F59.96819717749952
sg17
F91.57225203736832
sg18
F13.6375
sg19
F16.855495925263366
sg20
S'sourdought_and_freshyeast'
p32
ssVfresh yeast
p33
(dp34
g3
Vfresh yeast
p35
sg5
F330.0
sg6
I0
sg7
F2.85
sg8
F570.0
sg9
I0
sg10
F57.89473684210527
sg11
F900.0
sg12
I0
sg13
F157.89473684210526
sg14
I2
sg15
F0.5
sg16
F57.89473684210526
sg17
F100.0
sg18
F11.4
sg19
F0.0
sg20
S'freshyeast'
p36
ssVdry yeast
p37
(dp38
g3
Vdry yeast
p39
sg5
F360.0
sg6
I0
sg7
F6.0
sg8
F600.0
sg9
I0
sg10
F60.0
sg11
F960.0
sg12
I0
sg13
F160.0
sg14
I2
sg15
I1
sg16
F60.0
sg17
F100.0
sg18
F12.0
sg19
F0.0
sg20
g28
ss.